Certificate:
    Data:
        Version: 3 (0x2)
        Serial Number:
            72:94:04:10:1f:3e:0c:a3:47:83:7f:ca:17:5a:84:38
    Signature Algorithm: sha1WithRSAEncryption
        Issuer: C=US, ST=Washington, L=Redmond, O=Microsoft Corporation, CN=Microsoft Code Verification Root
        Validity
            Not Before: Nov  1 13:46:46 2005 GMT
            Not After : Nov  1 13:54:03 2025 GMT
        Subject: C=US, ST=Washington, L=Redmond, O=Microsoft Corporation, CN=Microsoft Code Verification Root
        Subject Public Key Info:
            Public Key Algorithm: rsaEncryption
                Public-Key: (4096 bit)
                Modulus:
                    00:bd:77:c9:1c:7f:15:78:38:c5:07:43:21:5a:fb:
                    e4:cc:3b:c6:55:31:fc:21:89:b1:bc:e7:01:9c:fb:
                    90:be:20:11:55:76:a7:4d:02:e7:b2:f4:2e:8d:ef:
                    b2:87:46:56:ca:47:ce:c8:c3:63:e3:08:03:4b:96:
                    06:b9:70:22:44:e6:4b:7b:44:3f:75:b7:b8:a6:2b:
                    91:08:41:ef:4b:07:59:d6:a4:19:9d:f6:cb:a4:bb:
                    8e:02:65:4d:ca:de:0f:b4:90:22:f1:b5:6b:5c:22:
                    f6:ca:f9:38:aa:28:0b:06:2d:3c:19:8d:b7:35:5f:
                    83:ed:dd:65:73:84:46:92:9f:44:e2:89:4a:8c:d5:
                    98:a7:6d:3d:e8:19:cb:44:ad:18:0b:ea:5c:5f:7c:
                    0b:c3:9a:93:68:44:f3:b6:bf:97:99:30:72:3f:28:
                    59:d0:70:c8:05:57:78:f5:4a:82:34:0a:24:c1:7a:
                    b0:64:a5:3a:6e:12:d5:03:61:38:bb:0e:2d:fd:85:
                    9c:d6:48:75:6a:1c:b2:a2:e8:91:fa:b7:e4:f5:3c:
                    5f:fd:c9:40:ac:c7:a0:42:f5:74:d8:b9:db:d7:fe:
                    73:77:1a:e0:c4:b7:09:b1:05:9a:6d:e3:5e:80:38:
                    75:78:52:b6:12:d3:79:ae:43:f7:65:a7:d1:16:64:
                    69:85:8f:78:3a:b8:94:bf:45:12:62:5a:4d:87:48:
                    d6:f8:19:bc:59:01:06:f5:1a:db:60:29:9f:01:3f:
                    6e:73:f9:fd:80:45:ce:95:d7:8a:f6:92:0c:c1:73:
                    40:2c:6d:aa:32:a6:f1:7f:30:f8:90:f1:ae:45:27:
                    b9:b4:0e:30:02:bd:c6:0e:ec:3c:8c:5b:b6:34:85:
                    cf:14:0b:0c:50:0d:a9:e2:59:91:2e:a8:01:39:f4:
                    2c:15:63:04:80:b8:40:df:62:f7:fe:b7:4c:13:a8:
                    2c:a9:66:13:38:62:fc:40:70:62:7b:75:77:d5:2b:
                    8e:1b:a5:99:e5:b9:b7:c7:ad:ea:01:a0:25:7b:58:
                    46:52:56:54:a2:c9:92:2b:58:1d:48:51:c0:1f:fe:
                    37:00:d1:e2:ab:10:c2:a9:59:e9:42:99:6e:8f:b5:
                    1e:47:66:74:1e:98:76:57:57:04:5e:bd:2f:85:93:
                    d5:0e:0b:9f:2e:7b:26:64:a7:86:12:09:50:63:e7:
                    d1:c7:8e:7e:0e:3b:07:e7:bb:e4:cd:1a:40:d4:7a:
                    ba:05:59:4a:d6:d0:ee:dc:96:5e:22:4a:27:1c:45:
                    e3:de:da:b2:e9:d3:43:fd:e9:6f:c0:c9:7d:1f:fd:
                    9f:90:9c:86:20:08:cc:74:dc:40:a7:29:b3:ab:58:
                    65:6b:b1
                Exponent: 65537 (0x10001)
        X509v3 extensions:
            X509v3 Key Usage: 
                Digital Signature, Non Repudiation, Certificate Sign, CRL Sign
            X509v3 Basic Constraints: critical
                CA:TRUE
            X509v3 Subject Key Identifier: 
                62:FB:0A:21:5B:7F:43:6E:11:DA:09:54:50:6B:F5:D2:96:71:F1:9E
            X509v3 CRL Distribution Points: 

                Full Name:
                  URI:http://crl.microsoft.com/pki/crl/products/MicrosoftCodeVerifRoot.crl

            1.3.6.1.4.1.311.21.1: 
                ...
            X509v3 Certificate Policies: 
                Policy: 1.3.6.1.4.1.311.21.47
                  User Notice:
                    Explicit Text: 

            Authority Information Access: 
                CA Issuers - URI:http://www.microsoft.com/pki/certs/MicrosoftCodeVerifRoot.crt

    Signature Algorithm: sha1WithRSAEncryption
         61:42:e8:eb:18:c8:71:dc:46:19:69:6d:ea:0e:cd:38:67:ac:
         3e:a7:07:f6:4d:16:3c:9e:57:fb:b8:b8:a7:c7:87:09:e6:63:
         57:d0:3d:46:90:50:f5:05:99:c9:ca:74:3a:fb:01:ad:7a:4d:
         6a:ab:84:e0:40:53:57:c8:9c:d5:04:36:82:b8:b7:1e:c6:87:
         99:c2:d8:c7:20:9e:c6:f2:3e:55:f9:8f:74:44:51:dd:2b:b6:
         d0:14:dd:c6:de:d2:c5:ff:85:af:17:b9:a0:75:da:c6:0d:e2:
         45:76:96:1a:cb:3e:53:fb:e9:34:5b:32:03:23:6c:bf:d8:7e:
         9a:3d:85:0f:c8:15:3b:9d:00:56:4f:af:dd:b1:25:1c:a0:cc:
         29:66:1b:47:ce:7b:67:ef:64:ef:48:47:92:de:9d:14:50:69:
         b8:5f:82:a9:f2:ad:93:2b:53:ef:ab:62:32:37:ea:bf:04:0b:
         46:eb:19:84:a6:aa:49:a0:6d:c1:ab:2d:83:41:6a:b4:d6:43:
         7b:d2:3b:7a:0c:d2:6d:d0:0d:20:dc:5b:c2:29:a7:f8:82:24:
         22:16:01:35:d8:1a:d6:44:22:dc:47:67:56:a6:68:2e:ff:c9:
         66:9f:fb:7f:b4:64:c6:1e:67:76:e0:31:2e:3a:d9:73:0d:67:
         99:c8:f5:61:1e:5d:c1:a7:b8:8f:31:1f:38:df:e3:b3:87:4c:
         4d:b3:c4:f6:60:5c:ac:ac:0d:a0:2c:02:b9:ef:f0:a3:5d:27:
         bd:96:7d:0d:d0:d4:40:06:d1:a4:d6:cb:6e:b3:d5:36:fe:48:
         c8:f2:38:26:56:3a:20:6a:a4:c3:00:48:e7:18:29:e7:ab:a3:
         ab:7c:07:a4:7f:a5:6b:4a:ba:02:3f:86:97:5d:b9:6e:59:24:
         e0:7c:8f:ed:ef:c3:cf:aa:af:15:51:3f:df:f7:28:78:5d:eb:
         4d:1f:5d:34:08:9b:34:3b:2a:a1:c8:91:09:7d:53:c1:ff:7d:
         80:1f:e0:6b:28:d4:b9:dd:58:74:21:b8:9f:2d:bd:15:3a:4e:
         45:4a:5c:c3:ac:7c:07:b2:d0:21:15:b8:cf:69:da:14:e4:2c:
         24:fb:66:e5:01:9e:1a:66:b4:c4:ad:4d:2b:ad:60:62:e4:e4:
         8f:ea:37:0d:ca:d8:36:dc:7f:db:20:7a:33:c0:4a:d6:1f:2d:
         e0:85:ce:2b:a1:92:d7:54:53:20:61:86:7c:37:03:03:8c:fc:
         43:47:e4:f8:48:8b:ac:1a:42:ea:98:82:5d:62:53:81:6b:53:
         46:30:b2:e7:85:ab:bc:18:9c:86:96:59:86:b6:1a:af:fa:fd:
         48:31:24:5c:01:1c:bb:1c
-----BEGIN CERTIFICATE-----
MIIHBTCCBO2gAwIBAgIQcpQEEB8+DKNHg3/KF1qEODANBgkqhkiG9w0BAQUFADB/
MQswCQYDVQQGEwJVUzETMBEGA1UECBMKV2FzaGluZ3RvbjEQMA4GA1UEBxMHUmVk
bW9uZDEeMBwGA1UEChMVTWljcm9zb2Z0IENvcnBvcmF0aW9uMSkwJwYDVQQDEyBN
aWNyb3NvZnQgQ29kZSBWZXJpZmljYXRpb24gUm9vdDAeFw0wNTExMDExMzQ2NDZa
Fw0yNTExMDExMzU0MDNaMH8xCzAJBgNVBAYTAlVTMRMwEQYDVQQIEwpXYXNoaW5n
dG9uMRAwDgYDVQQHEwdSZWRtb25kMR4wHAYDVQQKExVNaWNyb3NvZnQgQ29ycG9y
YXRpb24xKTAnBgNVBAMTIE1pY3Jvc29mdCBDb2RlIFZlcmlmaWNhdGlvbiBSb290
MIICIjANBgkqhkiG9w0BAQEFAAOCAg8AMIICCgKCAgEAvXfJHH8VeDjFB0MhWvvk
zDvGVTH8IYmxvOcBnPuQviARVXanTQLnsvQuje+yh0ZWykfOyMNj4wgDS5YGuXAi
ROZLe0Q/dbe4piuRCEHvSwdZ1qQZnfbLpLuOAmVNyt4PtJAi8bVrXCL2yvk4qigL
Bi08GY23NV+D7d1lc4RGkp9E4olKjNWYp2096BnLRK0YC+pcX3wLw5qTaETztr+X
mTByPyhZ0HDIBVd49UqCNAokwXqwZKU6bhLVA2E4uw4t/YWc1kh1ahyyouiR+rfk
9Txf/clArMegQvV02Lnb1/5zdxrgxLcJsQWabeNegDh1eFK2EtN5rkP3ZafRFmRp
hY94OriUv0USYlpNh0jW+Bm8WQEG9RrbYCmfAT9uc/n9gEXOldeK9pIMwXNALG2q
MqbxfzD4kPGuRSe5tA4wAr3GDuw8jFu2NIXPFAsMUA2p4lmRLqgBOfQsFWMEgLhA
32L3/rdME6gsqWYTOGL8QHBie3V31SuOG6WZ5bm3x63qAaAle1hGUlZUosmSK1gd
SFHAH/43ANHiqxDCqVnpQpluj7UeR2Z0Hph2V1cEXr0vhZPVDgufLnsmZKeGEglQ
Y+fRx45+DjsH57vkzRpA1Hq6BVlK1tDu3JZeIkonHEXj3tqy6dND/elvwMl9H/2f
kJyGIAjMdNxApymzq1hla7ECAwEAAaOCAXswggF3MAsGA1UdDwQEAwIBxjAPBgNV
HRMBAf8EBTADAQH/MB0GA1UdDgQWBBRi+wohW39DbhHaCVRQa/XSlnHxnjBVBgNV
HR8ETjBMMEqgSKBGhkRodHRwOi8vY3JsLm1pY3Jvc29mdC5jb20vcGtpL2NybC9w
cm9kdWN0cy9NaWNyb3NvZnRDb2RlVmVyaWZSb290LmNybDAQBgkrBgEEAYI3FQEE
AwIBADB0BgNVHSAEbTBrMGkGCSsGAQQBgjcVLzBcMFoGCCsGAQUFBwICME4eTABD
AG8AcAB5AHIAaQBnAGgAdAAgAKkAIAAyADAAMAA1ACAATQBpAGMAcgBvAHMAbwBm
AHQAIABDAG8AcgBwAG8AcgBhAHQAaQBvAG4wWQYIKwYBBQUHAQEETTBLMEkGCCsG
AQUFBzAChj1odHRwOi8vd3d3Lm1pY3Jvc29mdC5jb20vcGtpL2NlcnRzL01pY3Jv
c29mdENvZGVWZXJpZlJvb3QuY3J0MA0GCSqGSIb3DQEBBQUAA4ICAQBhQujrGMhx
3EYZaW3qDs04Z6w+pwf2TRY8nlf7uLinx4cJ5mNX0D1GkFD1BZnJynQ6+wGtek1q
q4TgQFNXyJzVBDaCuLcexoeZwtjHIJ7G8j5V+Y90RFHdK7bQFN3G3tLF/4WvF7mg
ddrGDeJFdpYayz5T++k0WzIDI2y/2H6aPYUPyBU7nQBWT6/dsSUcoMwpZhtHzntn
72TvSEeS3p0UUGm4X4Kp8q2TK1Pvq2IyN+q/BAtG6xmEpqpJoG3Bqy2DQWq01kN7
0jt6DNJt0A0g3FvCKaf4giQiFgE12BrWRCLcR2dWpmgu/8lmn/t/tGTGHmd24DEu
OtlzDWeZyPVhHl3Bp7iPMR843+Ozh0xNs8T2YFysrA2gLAK57/CjXSe9ln0N0NRA
BtGk1stus9U2/kjI8jgmVjogaqTDAEjnGCnnq6OrfAekf6VrSroCP4aXXbluWSTg
fI/t78PPqq8VUT/f9yh4XetNH100CJs0OyqhyJEJfVPB/32AH+BrKNS53Vh0Ibif
Lb0VOk5FSlzDrHwHstAhFbjPadoU5Cwk+2blAZ4aZrTErU0rrWBi5OSP6jcNytg2
3H/bIHozwErWHy3ghc4roZLXVFMgYYZ8NwMDjPxDR+T4SIusGkLqmIJdYlOBa1NG
MLLnhau8GJyGllmGthqv+v1IMSRcARy7HA==
-----END CERTIFICATE-----
